
Door_Lock_System.elf:     file format elf32-avr

Sections:
Idx Name          Size      VMA       LMA       File off  Algn
  0 .text         00000388  00000000  00000000  00000054  2**1
                  CONTENTS, ALLOC, LOAD, READONLY, CODE
  1 .data         00000000  00800060  00800060  000003dc  2**0
                  CONTENTS, ALLOC, LOAD, DATA
  2 .comment      00000030  00000000  00000000  000003dc  2**0
                  CONTENTS, READONLY
  3 .note.gnu.avr.deviceinfo 0000003c  00000000  00000000  0000040c  2**2
                  CONTENTS, READONLY
  4 .debug_aranges 000000f0  00000000  00000000  00000448  2**0
                  CONTENTS, READONLY, DEBUGGING
  5 .debug_info   00000f60  00000000  00000000  00000538  2**0
                  CONTENTS, READONLY, DEBUGGING
  6 .debug_abbrev 00000922  00000000  00000000  00001498  2**0
                  CONTENTS, READONLY, DEBUGGING
  7 .debug_line   000008c0  00000000  00000000  00001dba  2**0
                  CONTENTS, READONLY, DEBUGGING
  8 .debug_frame  00000154  00000000  00000000  0000267c  2**2
                  CONTENTS, READONLY, DEBUGGING
  9 .debug_str    00000577  00000000  00000000  000027d0  2**0
                  CONTENTS, READONLY, DEBUGGING
 10 .debug_loc    00000454  00000000  00000000  00002d47  2**0
                  CONTENTS, READONLY, DEBUGGING
 11 .debug_ranges 000000a0  00000000  00000000  0000319b  2**0
                  CONTENTS, READONLY, DEBUGGING

Disassembly of section .text:

00000000 <__vectors>:
   0:	0c 94 2a 00 	jmp	0x54	; 0x54 <__ctors_end>
   4:	0c 94 34 00 	jmp	0x68	; 0x68 <__bad_interrupt>
   8:	0c 94 34 00 	jmp	0x68	; 0x68 <__bad_interrupt>
   c:	0c 94 34 00 	jmp	0x68	; 0x68 <__bad_interrupt>
  10:	0c 94 34 00 	jmp	0x68	; 0x68 <__bad_interrupt>
  14:	0c 94 34 00 	jmp	0x68	; 0x68 <__bad_interrupt>
  18:	0c 94 34 00 	jmp	0x68	; 0x68 <__bad_interrupt>
  1c:	0c 94 34 00 	jmp	0x68	; 0x68 <__bad_interrupt>
  20:	0c 94 34 00 	jmp	0x68	; 0x68 <__bad_interrupt>
  24:	0c 94 34 00 	jmp	0x68	; 0x68 <__bad_interrupt>
  28:	0c 94 34 00 	jmp	0x68	; 0x68 <__bad_interrupt>
  2c:	0c 94 34 00 	jmp	0x68	; 0x68 <__bad_interrupt>
  30:	0c 94 34 00 	jmp	0x68	; 0x68 <__bad_interrupt>
  34:	0c 94 34 00 	jmp	0x68	; 0x68 <__bad_interrupt>
  38:	0c 94 34 00 	jmp	0x68	; 0x68 <__bad_interrupt>
  3c:	0c 94 34 00 	jmp	0x68	; 0x68 <__bad_interrupt>
  40:	0c 94 34 00 	jmp	0x68	; 0x68 <__bad_interrupt>
  44:	0c 94 34 00 	jmp	0x68	; 0x68 <__bad_interrupt>
  48:	0c 94 34 00 	jmp	0x68	; 0x68 <__bad_interrupt>
  4c:	0c 94 34 00 	jmp	0x68	; 0x68 <__bad_interrupt>
  50:	0c 94 34 00 	jmp	0x68	; 0x68 <__bad_interrupt>

00000054 <__ctors_end>:
  54:	11 24       	eor	r1, r1
  56:	1f be       	out	0x3f, r1	; 63
  58:	cf e5       	ldi	r28, 0x5F	; 95
  5a:	d8 e0       	ldi	r29, 0x08	; 8
  5c:	de bf       	out	0x3e, r29	; 62
  5e:	cd bf       	out	0x3d, r28	; 61
  60:	0e 94 36 00 	call	0x6c	; 0x6c <main>
  64:	0c 94 c2 01 	jmp	0x384	; 0x384 <_exit>

00000068 <__bad_interrupt>:
  68:	0c 94 00 00 	jmp	0	; 0x0 <__vectors>

0000006c <main>:
int main(void)
{
	    /* Replace with your application code */
    while (1) 
    {    
		if(H_PushButtons_Read(PUSH_BUTTON1) == PRESSED)
  6c:	82 e0       	ldi	r24, 0x02	; 2
  6e:	0e 94 90 00 	call	0x120	; 0x120 <H_PushButtons_Read>
  72:	81 30       	cpi	r24, 0x01	; 1
  74:	71 f4       	brne	.+28     	; 0x92 <main+0x26>
		{
			H_Leds_On(LED0);
  76:	0e 94 66 00 	call	0xcc	; 0xcc <H_Leds_On>
	#else
		//round up by default
		__ticks_dc = (uint32_t)(ceil(fabs(__tmp)));
	#endif

	__builtin_avr_delay_cycles(__ticks_dc);
  7a:	2f ef       	ldi	r18, 0xFF	; 255
  7c:	81 ee       	ldi	r24, 0xE1	; 225
  7e:	94 e0       	ldi	r25, 0x04	; 4
  80:	21 50       	subi	r18, 0x01	; 1
  82:	80 40       	sbci	r24, 0x00	; 0
  84:	90 40       	sbci	r25, 0x00	; 0
  86:	e1 f7       	brne	.-8      	; 0x80 <main+0x14>
  88:	00 c0       	rjmp	.+0      	; 0x8a <main+0x1e>
  8a:	00 00       	nop
			_delay_ms(100);
			H_Leds_Off(LED0);
  8c:	81 e0       	ldi	r24, 0x01	; 1
  8e:	0e 94 7b 00 	call	0xf6	; 0xf6 <H_Leds_Off>
		}
		if(H_PushButtons_Read(PUSH_BUTTON2) == PRESSED)
  92:	83 e0       	ldi	r24, 0x03	; 3
  94:	0e 94 90 00 	call	0x120	; 0x120 <H_PushButtons_Read>
  98:	81 30       	cpi	r24, 0x01	; 1
  9a:	41 f7       	brne	.-48     	; 0x6c <main>
		{
			H_Buzzer_On();
  9c:	0e 94 5c 00 	call	0xb8	; 0xb8 <H_Buzzer_On>
  a0:	2f ef       	ldi	r18, 0xFF	; 255
  a2:	83 ed       	ldi	r24, 0xD3	; 211
  a4:	90 e3       	ldi	r25, 0x30	; 48
  a6:	21 50       	subi	r18, 0x01	; 1
  a8:	80 40       	sbci	r24, 0x00	; 0
  aa:	90 40       	sbci	r25, 0x00	; 0
  ac:	e1 f7       	brne	.-8      	; 0xa6 <main+0x3a>
  ae:	00 c0       	rjmp	.+0      	; 0xb0 <main+0x44>
  b0:	00 00       	nop
			_delay_ms(1000);
			H_Buzzer_Off();
  b2:	0e 94 61 00 	call	0xc2	; 0xc2 <H_Buzzer_Off>
  b6:	da cf       	rjmp	.-76     	; 0x6c <main>

000000b8 <H_Buzzer_On>:
  b8:	61 e0       	ldi	r22, 0x01	; 1
  ba:	8d e0       	ldi	r24, 0x0D	; 13
  bc:	0e 94 f5 00 	call	0x1ea	; 0x1ea <M_Dio_PinWrite>
  c0:	08 95       	ret

000000c2 <H_Buzzer_Off>:
  c2:	62 e0       	ldi	r22, 0x02	; 2
  c4:	8d e0       	ldi	r24, 0x0D	; 13
  c6:	0e 94 f5 00 	call	0x1ea	; 0x1ea <M_Dio_PinWrite>
  ca:	08 95       	ret

000000cc <H_Leds_On>:
  cc:	82 30       	cpi	r24, 0x02	; 2
  ce:	49 f0       	breq	.+18     	; 0xe2 <H_Leds_On+0x16>
  d0:	83 30       	cpi	r24, 0x03	; 3
  d2:	61 f0       	breq	.+24     	; 0xec <H_Leds_On+0x20>
  d4:	81 30       	cpi	r24, 0x01	; 1
  d6:	71 f4       	brne	.+28     	; 0xf4 <H_Leds_On+0x28>
  d8:	61 e0       	ldi	r22, 0x01	; 1
  da:	80 e2       	ldi	r24, 0x20	; 32
  dc:	0e 94 f5 00 	call	0x1ea	; 0x1ea <M_Dio_PinWrite>
  e0:	08 95       	ret
  e2:	61 e0       	ldi	r22, 0x01	; 1
  e4:	85 e2       	ldi	r24, 0x25	; 37
  e6:	0e 94 f5 00 	call	0x1ea	; 0x1ea <M_Dio_PinWrite>
  ea:	08 95       	ret
  ec:	61 e0       	ldi	r22, 0x01	; 1
  ee:	8b e2       	ldi	r24, 0x2B	; 43
  f0:	0e 94 f5 00 	call	0x1ea	; 0x1ea <M_Dio_PinWrite>
  f4:	08 95       	ret

000000f6 <H_Leds_Off>:
  f6:	82 30       	cpi	r24, 0x02	; 2
  f8:	49 f0       	breq	.+18     	; 0x10c <H_Leds_Off+0x16>
  fa:	83 30       	cpi	r24, 0x03	; 3
  fc:	61 f0       	breq	.+24     	; 0x116 <H_Leds_Off+0x20>
  fe:	81 30       	cpi	r24, 0x01	; 1
 100:	71 f4       	brne	.+28     	; 0x11e <H_Leds_Off+0x28>
 102:	62 e0       	ldi	r22, 0x02	; 2
 104:	80 e2       	ldi	r24, 0x20	; 32
 106:	0e 94 f5 00 	call	0x1ea	; 0x1ea <M_Dio_PinWrite>
 10a:	08 95       	ret
 10c:	62 e0       	ldi	r22, 0x02	; 2
 10e:	85 e2       	ldi	r24, 0x25	; 37
 110:	0e 94 f5 00 	call	0x1ea	; 0x1ea <M_Dio_PinWrite>
 114:	08 95       	ret
 116:	62 e0       	ldi	r22, 0x02	; 2
 118:	8b e2       	ldi	r24, 0x2B	; 43
 11a:	0e 94 f5 00 	call	0x1ea	; 0x1ea <M_Dio_PinWrite>
 11e:	08 95       	ret

00000120 <H_PushButtons_Read>:
 120:	82 30       	cpi	r24, 0x02	; 2
 122:	09 f1       	breq	.+66     	; 0x166 <H_PushButtons_Read+0x46>
 124:	83 30       	cpi	r24, 0x03	; 3
 126:	c9 f1       	breq	.+114    	; 0x19a <H_PushButtons_Read+0x7a>
 128:	81 30       	cpi	r24, 0x01	; 1
 12a:	09 f0       	breq	.+2      	; 0x12e <H_PushButtons_Read+0xe>
 12c:	50 c0       	rjmp	.+160    	; 0x1ce <H_PushButtons_Read+0xae>
 12e:	84 e1       	ldi	r24, 0x14	; 20
 130:	0e 94 7e 01 	call	0x2fc	; 0x2fc <M_Dio_PinRead>
 134:	81 30       	cpi	r24, 0x01	; 1
 136:	09 f0       	breq	.+2      	; 0x13a <H_PushButtons_Read+0x1a>
 138:	4c c0       	rjmp	.+152    	; 0x1d2 <H_PushButtons_Read+0xb2>
 13a:	2f ef       	ldi	r18, 0xFF	; 255
 13c:	89 ef       	ldi	r24, 0xF9	; 249
 13e:	90 e0       	ldi	r25, 0x00	; 0
 140:	21 50       	subi	r18, 0x01	; 1
 142:	80 40       	sbci	r24, 0x00	; 0
 144:	90 40       	sbci	r25, 0x00	; 0
 146:	e1 f7       	brne	.-8      	; 0x140 <H_PushButtons_Read+0x20>
 148:	00 c0       	rjmp	.+0      	; 0x14a <H_PushButtons_Read+0x2a>
 14a:	00 00       	nop
 14c:	84 e1       	ldi	r24, 0x14	; 20
 14e:	0e 94 7e 01 	call	0x2fc	; 0x2fc <M_Dio_PinRead>
 152:	81 30       	cpi	r24, 0x01	; 1
 154:	09 f0       	breq	.+2      	; 0x158 <H_PushButtons_Read+0x38>
 156:	3f c0       	rjmp	.+126    	; 0x1d6 <H_PushButtons_Read+0xb6>
 158:	84 e1       	ldi	r24, 0x14	; 20
 15a:	0e 94 7e 01 	call	0x2fc	; 0x2fc <M_Dio_PinRead>
 15e:	81 30       	cpi	r24, 0x01	; 1
 160:	d9 f3       	breq	.-10     	; 0x158 <H_PushButtons_Read+0x38>
 162:	81 e0       	ldi	r24, 0x01	; 1
 164:	08 95       	ret
 166:	8e e2       	ldi	r24, 0x2E	; 46
 168:	0e 94 7e 01 	call	0x2fc	; 0x2fc <M_Dio_PinRead>
 16c:	81 30       	cpi	r24, 0x01	; 1
 16e:	a9 f5       	brne	.+106    	; 0x1da <H_PushButtons_Read+0xba>
 170:	2f ef       	ldi	r18, 0xFF	; 255
 172:	89 ef       	ldi	r24, 0xF9	; 249
 174:	90 e0       	ldi	r25, 0x00	; 0
 176:	21 50       	subi	r18, 0x01	; 1
 178:	80 40       	sbci	r24, 0x00	; 0
 17a:	90 40       	sbci	r25, 0x00	; 0
 17c:	e1 f7       	brne	.-8      	; 0x176 <H_PushButtons_Read+0x56>
 17e:	00 c0       	rjmp	.+0      	; 0x180 <H_PushButtons_Read+0x60>
 180:	00 00       	nop
 182:	8e e2       	ldi	r24, 0x2E	; 46
 184:	0e 94 7e 01 	call	0x2fc	; 0x2fc <M_Dio_PinRead>
 188:	81 30       	cpi	r24, 0x01	; 1
 18a:	49 f5       	brne	.+82     	; 0x1de <H_PushButtons_Read+0xbe>
 18c:	8e e2       	ldi	r24, 0x2E	; 46
 18e:	0e 94 7e 01 	call	0x2fc	; 0x2fc <M_Dio_PinRead>
 192:	81 30       	cpi	r24, 0x01	; 1
 194:	d9 f3       	breq	.-10     	; 0x18c <H_PushButtons_Read+0x6c>
 196:	81 e0       	ldi	r24, 0x01	; 1
 198:	08 95       	ret
 19a:	8a e2       	ldi	r24, 0x2A	; 42
 19c:	0e 94 7e 01 	call	0x2fc	; 0x2fc <M_Dio_PinRead>
 1a0:	81 30       	cpi	r24, 0x01	; 1
 1a2:	f9 f4       	brne	.+62     	; 0x1e2 <H_PushButtons_Read+0xc2>
 1a4:	2f ef       	ldi	r18, 0xFF	; 255
 1a6:	89 ef       	ldi	r24, 0xF9	; 249
 1a8:	90 e0       	ldi	r25, 0x00	; 0
 1aa:	21 50       	subi	r18, 0x01	; 1
 1ac:	80 40       	sbci	r24, 0x00	; 0
 1ae:	90 40       	sbci	r25, 0x00	; 0
 1b0:	e1 f7       	brne	.-8      	; 0x1aa <H_PushButtons_Read+0x8a>
 1b2:	00 c0       	rjmp	.+0      	; 0x1b4 <H_PushButtons_Read+0x94>
 1b4:	00 00       	nop
 1b6:	8a e2       	ldi	r24, 0x2A	; 42
 1b8:	0e 94 7e 01 	call	0x2fc	; 0x2fc <M_Dio_PinRead>
 1bc:	81 30       	cpi	r24, 0x01	; 1
 1be:	99 f4       	brne	.+38     	; 0x1e6 <H_PushButtons_Read+0xc6>
 1c0:	8a e2       	ldi	r24, 0x2A	; 42
 1c2:	0e 94 7e 01 	call	0x2fc	; 0x2fc <M_Dio_PinRead>
 1c6:	81 30       	cpi	r24, 0x01	; 1
 1c8:	d9 f3       	breq	.-10     	; 0x1c0 <H_PushButtons_Read+0xa0>
 1ca:	81 e0       	ldi	r24, 0x01	; 1
 1cc:	08 95       	ret
 1ce:	80 e0       	ldi	r24, 0x00	; 0
 1d0:	08 95       	ret
 1d2:	80 e0       	ldi	r24, 0x00	; 0
 1d4:	08 95       	ret
 1d6:	80 e0       	ldi	r24, 0x00	; 0
 1d8:	08 95       	ret
 1da:	80 e0       	ldi	r24, 0x00	; 0
 1dc:	08 95       	ret
 1de:	80 e0       	ldi	r24, 0x00	; 0
 1e0:	08 95       	ret
 1e2:	80 e0       	ldi	r24, 0x00	; 0
 1e4:	08 95       	ret
 1e6:	80 e0       	ldi	r24, 0x00	; 0
 1e8:	08 95       	ret

000001ea <M_Dio_PinWrite>:
 1ea:	9d ec       	ldi	r25, 0xCD	; 205
 1ec:	89 9f       	mul	r24, r25
 1ee:	91 2d       	mov	r25, r1
 1f0:	11 24       	eor	r1, r1
 1f2:	29 2f       	mov	r18, r25
 1f4:	26 95       	lsr	r18
 1f6:	26 95       	lsr	r18
 1f8:	26 95       	lsr	r18
 1fa:	22 0f       	add	r18, r18
 1fc:	32 2f       	mov	r19, r18
 1fe:	33 0f       	add	r19, r19
 200:	33 0f       	add	r19, r19
 202:	23 0f       	add	r18, r19
 204:	82 1b       	sub	r24, r18
 206:	28 2f       	mov	r18, r24
 208:	96 95       	lsr	r25
 20a:	96 95       	lsr	r25
 20c:	96 95       	lsr	r25
 20e:	61 30       	cpi	r22, 0x01	; 1
 210:	19 f0       	breq	.+6      	; 0x218 <M_Dio_PinWrite+0x2e>
 212:	62 30       	cpi	r22, 0x02	; 2
 214:	c1 f1       	breq	.+112    	; 0x286 <M_Dio_PinWrite+0x9c>
 216:	08 95       	ret
 218:	92 30       	cpi	r25, 0x02	; 2
 21a:	a1 f0       	breq	.+40     	; 0x244 <M_Dio_PinWrite+0x5a>
 21c:	18 f4       	brcc	.+6      	; 0x224 <M_Dio_PinWrite+0x3a>
 21e:	91 30       	cpi	r25, 0x01	; 1
 220:	31 f0       	breq	.+12     	; 0x22e <M_Dio_PinWrite+0x44>
 222:	08 95       	ret
 224:	93 30       	cpi	r25, 0x03	; 3
 226:	c9 f0       	breq	.+50     	; 0x25a <M_Dio_PinWrite+0x70>
 228:	94 30       	cpi	r25, 0x04	; 4
 22a:	11 f1       	breq	.+68     	; 0x270 <M_Dio_PinWrite+0x86>
 22c:	08 95       	ret
 22e:	3b b3       	in	r19, 0x1b	; 27
 230:	81 e0       	ldi	r24, 0x01	; 1
 232:	90 e0       	ldi	r25, 0x00	; 0
 234:	02 c0       	rjmp	.+4      	; 0x23a <M_Dio_PinWrite+0x50>
 236:	88 0f       	add	r24, r24
 238:	99 1f       	adc	r25, r25
 23a:	2a 95       	dec	r18
 23c:	e2 f7       	brpl	.-8      	; 0x236 <M_Dio_PinWrite+0x4c>
 23e:	83 2b       	or	r24, r19
 240:	8b bb       	out	0x1b, r24	; 27
 242:	08 95       	ret
 244:	38 b3       	in	r19, 0x18	; 24
 246:	81 e0       	ldi	r24, 0x01	; 1
 248:	90 e0       	ldi	r25, 0x00	; 0
 24a:	02 c0       	rjmp	.+4      	; 0x250 <M_Dio_PinWrite+0x66>
 24c:	88 0f       	add	r24, r24
 24e:	99 1f       	adc	r25, r25
 250:	2a 95       	dec	r18
 252:	e2 f7       	brpl	.-8      	; 0x24c <M_Dio_PinWrite+0x62>
 254:	83 2b       	or	r24, r19
 256:	88 bb       	out	0x18, r24	; 24
 258:	08 95       	ret
 25a:	35 b3       	in	r19, 0x15	; 21
 25c:	81 e0       	ldi	r24, 0x01	; 1
 25e:	90 e0       	ldi	r25, 0x00	; 0
 260:	02 c0       	rjmp	.+4      	; 0x266 <M_Dio_PinWrite+0x7c>
 262:	88 0f       	add	r24, r24
 264:	99 1f       	adc	r25, r25
 266:	2a 95       	dec	r18
 268:	e2 f7       	brpl	.-8      	; 0x262 <M_Dio_PinWrite+0x78>
 26a:	83 2b       	or	r24, r19
 26c:	85 bb       	out	0x15, r24	; 21
 26e:	08 95       	ret
 270:	32 b3       	in	r19, 0x12	; 18
 272:	81 e0       	ldi	r24, 0x01	; 1
 274:	90 e0       	ldi	r25, 0x00	; 0
 276:	02 c0       	rjmp	.+4      	; 0x27c <M_Dio_PinWrite+0x92>
 278:	88 0f       	add	r24, r24
 27a:	99 1f       	adc	r25, r25
 27c:	2a 95       	dec	r18
 27e:	e2 f7       	brpl	.-8      	; 0x278 <M_Dio_PinWrite+0x8e>
 280:	83 2b       	or	r24, r19
 282:	82 bb       	out	0x12, r24	; 18
 284:	08 95       	ret
 286:	92 30       	cpi	r25, 0x02	; 2
 288:	a9 f0       	breq	.+42     	; 0x2b4 <M_Dio_PinWrite+0xca>
 28a:	18 f4       	brcc	.+6      	; 0x292 <M_Dio_PinWrite+0xa8>
 28c:	91 30       	cpi	r25, 0x01	; 1
 28e:	31 f0       	breq	.+12     	; 0x29c <M_Dio_PinWrite+0xb2>
 290:	08 95       	ret
 292:	93 30       	cpi	r25, 0x03	; 3
 294:	d9 f0       	breq	.+54     	; 0x2cc <M_Dio_PinWrite+0xe2>
 296:	94 30       	cpi	r25, 0x04	; 4
 298:	29 f1       	breq	.+74     	; 0x2e4 <M_Dio_PinWrite+0xfa>
 29a:	08 95       	ret
 29c:	3b b3       	in	r19, 0x1b	; 27
 29e:	81 e0       	ldi	r24, 0x01	; 1
 2a0:	90 e0       	ldi	r25, 0x00	; 0
 2a2:	02 c0       	rjmp	.+4      	; 0x2a8 <M_Dio_PinWrite+0xbe>
 2a4:	88 0f       	add	r24, r24
 2a6:	99 1f       	adc	r25, r25
 2a8:	2a 95       	dec	r18
 2aa:	e2 f7       	brpl	.-8      	; 0x2a4 <M_Dio_PinWrite+0xba>
 2ac:	80 95       	com	r24
 2ae:	83 23       	and	r24, r19
 2b0:	8b bb       	out	0x1b, r24	; 27
 2b2:	08 95       	ret
 2b4:	38 b3       	in	r19, 0x18	; 24
 2b6:	81 e0       	ldi	r24, 0x01	; 1
 2b8:	90 e0       	ldi	r25, 0x00	; 0
 2ba:	02 c0       	rjmp	.+4      	; 0x2c0 <M_Dio_PinWrite+0xd6>
 2bc:	88 0f       	add	r24, r24
 2be:	99 1f       	adc	r25, r25
 2c0:	2a 95       	dec	r18
 2c2:	e2 f7       	brpl	.-8      	; 0x2bc <M_Dio_PinWrite+0xd2>
 2c4:	80 95       	com	r24
 2c6:	83 23       	and	r24, r19
 2c8:	88 bb       	out	0x18, r24	; 24
 2ca:	08 95       	ret
 2cc:	35 b3       	in	r19, 0x15	; 21
 2ce:	81 e0       	ldi	r24, 0x01	; 1
 2d0:	90 e0       	ldi	r25, 0x00	; 0
 2d2:	02 c0       	rjmp	.+4      	; 0x2d8 <M_Dio_PinWrite+0xee>
 2d4:	88 0f       	add	r24, r24
 2d6:	99 1f       	adc	r25, r25
 2d8:	2a 95       	dec	r18
 2da:	e2 f7       	brpl	.-8      	; 0x2d4 <M_Dio_PinWrite+0xea>
 2dc:	80 95       	com	r24
 2de:	83 23       	and	r24, r19
 2e0:	85 bb       	out	0x15, r24	; 21
 2e2:	08 95       	ret
 2e4:	32 b3       	in	r19, 0x12	; 18
 2e6:	81 e0       	ldi	r24, 0x01	; 1
 2e8:	90 e0       	ldi	r25, 0x00	; 0
 2ea:	02 c0       	rjmp	.+4      	; 0x2f0 <M_Dio_PinWrite+0x106>
 2ec:	88 0f       	add	r24, r24
 2ee:	99 1f       	adc	r25, r25
 2f0:	2a 95       	dec	r18
 2f2:	e2 f7       	brpl	.-8      	; 0x2ec <M_Dio_PinWrite+0x102>
 2f4:	80 95       	com	r24
 2f6:	83 23       	and	r24, r19
 2f8:	82 bb       	out	0x12, r24	; 18
 2fa:	08 95       	ret

000002fc <M_Dio_PinRead>:
 2fc:	9d ec       	ldi	r25, 0xCD	; 205
 2fe:	89 9f       	mul	r24, r25
 300:	91 2d       	mov	r25, r1
 302:	11 24       	eor	r1, r1
 304:	29 2f       	mov	r18, r25
 306:	26 95       	lsr	r18
 308:	26 95       	lsr	r18
 30a:	26 95       	lsr	r18
 30c:	22 0f       	add	r18, r18
 30e:	32 2f       	mov	r19, r18
 310:	33 0f       	add	r19, r19
 312:	33 0f       	add	r19, r19
 314:	23 0f       	add	r18, r19
 316:	82 1b       	sub	r24, r18
 318:	28 2f       	mov	r18, r24
 31a:	89 2f       	mov	r24, r25
 31c:	86 95       	lsr	r24
 31e:	86 95       	lsr	r24
 320:	86 95       	lsr	r24
 322:	82 30       	cpi	r24, 0x02	; 2
 324:	91 f0       	breq	.+36     	; 0x34a <M_Dio_PinRead+0x4e>
 326:	18 f4       	brcc	.+6      	; 0x32e <M_Dio_PinRead+0x32>
 328:	81 30       	cpi	r24, 0x01	; 1
 32a:	31 f0       	breq	.+12     	; 0x338 <M_Dio_PinRead+0x3c>
 32c:	29 c0       	rjmp	.+82     	; 0x380 <M_Dio_PinRead+0x84>
 32e:	83 30       	cpi	r24, 0x03	; 3
 330:	a9 f0       	breq	.+42     	; 0x35c <M_Dio_PinRead+0x60>
 332:	84 30       	cpi	r24, 0x04	; 4
 334:	e1 f0       	breq	.+56     	; 0x36e <M_Dio_PinRead+0x72>
 336:	24 c0       	rjmp	.+72     	; 0x380 <M_Dio_PinRead+0x84>
 338:	89 b3       	in	r24, 0x19	; 25
 33a:	90 e0       	ldi	r25, 0x00	; 0
 33c:	02 c0       	rjmp	.+4      	; 0x342 <M_Dio_PinRead+0x46>
 33e:	95 95       	asr	r25
 340:	87 95       	ror	r24
 342:	2a 95       	dec	r18
 344:	e2 f7       	brpl	.-8      	; 0x33e <M_Dio_PinRead+0x42>
 346:	81 70       	andi	r24, 0x01	; 1
 348:	08 95       	ret
 34a:	86 b3       	in	r24, 0x16	; 22
 34c:	90 e0       	ldi	r25, 0x00	; 0
 34e:	02 c0       	rjmp	.+4      	; 0x354 <M_Dio_PinRead+0x58>
 350:	95 95       	asr	r25
 352:	87 95       	ror	r24
 354:	2a 95       	dec	r18
 356:	e2 f7       	brpl	.-8      	; 0x350 <M_Dio_PinRead+0x54>
 358:	81 70       	andi	r24, 0x01	; 1
 35a:	08 95       	ret
 35c:	83 b3       	in	r24, 0x13	; 19
 35e:	90 e0       	ldi	r25, 0x00	; 0
 360:	02 c0       	rjmp	.+4      	; 0x366 <M_Dio_PinRead+0x6a>
 362:	95 95       	asr	r25
 364:	87 95       	ror	r24
 366:	2a 95       	dec	r18
 368:	e2 f7       	brpl	.-8      	; 0x362 <M_Dio_PinRead+0x66>
 36a:	81 70       	andi	r24, 0x01	; 1
 36c:	08 95       	ret
 36e:	80 b3       	in	r24, 0x10	; 16
 370:	90 e0       	ldi	r25, 0x00	; 0
 372:	02 c0       	rjmp	.+4      	; 0x378 <M_Dio_PinRead+0x7c>
 374:	95 95       	asr	r25
 376:	87 95       	ror	r24
 378:	2a 95       	dec	r18
 37a:	e2 f7       	brpl	.-8      	; 0x374 <M_Dio_PinRead+0x78>
 37c:	81 70       	andi	r24, 0x01	; 1
 37e:	08 95       	ret
 380:	80 e0       	ldi	r24, 0x00	; 0
 382:	08 95       	ret

00000384 <_exit>:
 384:	f8 94       	cli

00000386 <__stop_program>:
 386:	ff cf       	rjmp	.-2      	; 0x386 <__stop_program>
